; Function Attrs: mustprogress uwtable
define noundef zeroext i1 @_ZN5boost6locale4util11locale_data5parseERKNSt7__cxx1112basic_stringIcSt11char_traitsIcESaIcEEE(ptr noundef nonnull align 8 dereferenceable(129) %0, ptr noundef nonnull align 8 dereferenceable(32) %1) local_unnamed_addr #0 align 2 {
  %3 = getelementptr inbounds nuw i8, ptr %0, i64 8
  %4 = load i64, ptr %3, align 8, !tbaa !8
  %5 = tail call noundef nonnull align 8 dereferenceable(32) ptr @_ZNSt7__cxx1112basic_stringIcSt11char_traitsIcESaIcEE10_M_replaceEmmPKcm(ptr noundef nonnull align 8 dereferenceable(129) %0, i64 noundef 0, i64 noundef %4, ptr noundef nonnull @.str.1, i64 noundef 1)
  %6 = getelementptr inbounds nuw i8, ptr %0, i64 32
  %7 = getelementptr inbounds nuw i8, ptr %0, i64 40
  store i64 0, ptr %7, align 8, !tbaa !8
  %8 = load ptr, ptr %6, align 8, !tbaa !12
  store i8 0, ptr %8, align 1, !tbaa !11
  %9 = getelementptr inbounds nuw i8, ptr %0, i64 64
  %10 = getelementptr inbounds nuw i8, ptr %0, i64 72
  %11 = load i64, ptr %10, align 8, !tbaa !8
  %12 = tail call noundef nonnull align 8 dereferenceable(32) ptr @_ZNSt7__cxx1112basic_stringIcSt11char_traitsIcESaIcEE10_M_replaceEmmPKcm(ptr noundef nonnull align 8 dereferenceable(32) %9, i64 noundef 0, i64 noundef %11, ptr noundef nonnull @.str.2, i64 noundef 8)
  %13 = getelementptr inbounds nuw i8, ptr %0, i64 96
  %14 = getelementptr inbounds nuw i8, ptr %0, i64 104
  store i64 0, ptr %14, align 8, !tbaa !8
  %15 = load ptr, ptr %13, align 8, !tbaa !12
  store i8 0, ptr %15, align 1, !tbaa !11
  %16 = getelementptr inbounds nuw i8, ptr %0, i64 128
  store i8 0, ptr %16, align 8, !tbaa !13
  %17 = tail call noundef zeroext i1 @_ZN5boost6locale4util11locale_data15parse_from_langERKNSt7__cxx1112basic_stringIcSt11char_traitsIcESaIcEEE(ptr noundef nonnull align 8 dereferenceable(129) %0, ptr noundef nonnull align 8 dereferenceable(32) %1)
  ret i1 %17
}